target datalayout = "e-m:e-p270:32:32-p271:32:32-p272:64:64-i64:64-i128:128-f80:128-n8:16:32:64-S128"
target triple = "x86_64-pc-linux-gnu"

; Function Attrs: nounwind sspstrong uwtable
define dso_local void @job_user_cancel_locked(ptr noundef %0, i1 noundef zeroext %1, ptr noundef %2) #0 {
  %4 = alloca ptr, align 8
  %5 = alloca i8, align 1
  %6 = alloca ptr, align 8
  store ptr %0, ptr %4, align 8
  %7 = zext i1 %1 to i8
  store i8 %7, ptr %5, align 1
  store ptr %2, ptr %6, align 8
  %8 = load ptr, ptr %4, align 8
  %9 = load ptr, ptr %6, align 8
  %10 = call i32 @job_apply_verb_locked(ptr noundef %8, i32 noundef 0, ptr noundef %9)
  %11 = icmp ne i32 %10, 0
  br i1 %11, label %12, label %13

12:                                               ; preds = %3
  br label %17

13:                                               ; preds = %3
  %14 = load ptr, ptr %4, align 8
  %15 = load i8, ptr %5, align 1, !range !7, !noundef !8
  %16 = trunc i8 %15 to i1
  call void @job_cancel_locked(ptr noundef %14, i1 noundef zeroext %16)
  br label %17

17:                                               ; preds = %13, %12
  ret void
}