; Function Attrs: nounwind sspstrong uwtable
define dso_local void @job_user_cancel_locked(ptr noundef %0, i1 noundef zeroext %1, ptr noundef %2) local_unnamed_addr #0 {
  %4 = tail call i32 @job_apply_verb_locked(ptr noundef %0, i32 noundef 0, ptr noundef %2)
  %.not = icmp eq i32 %4, 0
  br i1 %.not, label %5, label %6

5:                                                ; preds = %3
  tail call void @job_cancel_locked(ptr noundef %0, i1 noundef zeroext %1)
  br label %6

6:                                                ; preds = %3, %5
  ret void
}